; Function Attrs: mustprogress nounwind uwtable
define dso_local void @_ZNK4llvm3pdb21NativeCompilandSymbol14getLibraryNameB5cxx11Ev(ptr dead_on_unwind noalias writable sret(%"class.std::__cxx11::basic_string") align 8 %0, ptr noundef nonnull align 8 dereferenceable(64) %1) unnamed_addr #0 align 2 {
  %3 = alloca %"struct.std::__cxx11::basic_string<char>::__sv_wrapper", align 8
  %4 = alloca %"class.std::allocator.42", align 1
  %5 = getelementptr inbounds nuw i8, ptr %1, i64 24
  %6 = tail call { ptr, i64 } @_ZNK4llvm3pdb19DbiModuleDescriptor14getObjFileNameEv(ptr noundef nonnull align 8 dereferenceable(40) %5) #7
  %7 = extractvalue { ptr, i64 } %6, 0
  %8 = extractvalue { ptr, i64 } %6, 1
  call void @_ZNSaIcEC1Ev(ptr noundef nonnull align 1 dereferenceable(1) %4) #7
  call void @llvm.lifetime.start.p0(i64 16, ptr nonnull %3)
  %9 = call { i64, ptr } @_ZNSt7__cxx1112basic_stringIcSt11char_traitsIcESaIcEE17_S_to_string_viewESt17basic_string_viewIcS2_E(i64 %8, ptr %7) #7
  %10 = extractvalue { i64, ptr } %9, 0
  %11 = extractvalue { i64, ptr } %9, 1
  call void @_ZNSt7__cxx1112basic_stringIcSt11char_traitsIcESaIcEE12__sv_wrapperC1ESt17basic_string_viewIcS2_E(ptr noundef nonnull align 8 dereferenceable(16) %3, i64 %10, ptr %11) #7
  %12 = load i64, ptr %3, align 8
  %13 = getelementptr inbounds nuw i8, ptr %3, i64 8
  %14 = load ptr, ptr %13, align 8
  call void @_ZNSt7__cxx1112basic_stringIcSt11char_traitsIcESaIcEEC2ENS4_12__sv_wrapperERKS3_(ptr noundef nonnull align 8 dereferenceable(32) %0, i64 %12, ptr %14, ptr noundef nonnull align 1 dereferenceable(1) %4) #7
  call void @llvm.lifetime.end.p0(i64 16, ptr nonnull %3)
  call void @_ZNSaIcED1Ev(ptr noundef nonnull align 1 dereferenceable(1) %4) #7
  ret void
}